; Function Attrs: mustprogress nofree norecurse nosync nounwind willreturn memory(argmem: write) uwtable
define void @_ZN4LIEF5MachO12DylibCommand21compatibility_versionESt5arrayItLm3EE(ptr nocapture noundef nonnull writeonly align 8 dereferenceable(100) %0, i48 %1) local_unnamed_addr #9 align 2 {
  %.sroa.0.0.extract.trunc.i = trunc i48 %1 to i32
  %.sroa.3.0.extract.shift.i = lshr i48 %1, 32
  %.sroa.3.0.extract.trunc.i = trunc i48 %.sroa.3.0.extract.shift.i to i32
  %3 = lshr i32 %.sroa.0.0.extract.trunc.i, 8
  %4 = and i32 %3, 16776960
  %5 = shl i32 %.sroa.0.0.extract.trunc.i, 16
  %6 = or disjoint i32 %5, %.sroa.3.0.extract.trunc.i
  %7 = or i32 %6, %4
  %8 = getelementptr inbounds i8, ptr %0, i64 96
  store i32 %7, ptr %8, align 8
  ret void
}